target datalayout = "e-m:e-p270:32:32-p271:32:32-p272:64:64-i64:64-i128:128-f80:128-n8:16:32:64-S128"
target triple = "x86_64-pc-linux-gnu"

%struct.dlist_node = type { ptr, ptr }
%struct.PMChild = type { i32, i32, i32, ptr, i8, %struct.dlist_node }

@.str.4 = private unnamed_addr constant [13 x i8] c"postmaster.c\00", align 1
@.str.140 = private unnamed_addr constant [52 x i8] c"no slot available for new autovacuum worker process\00", align 1
@__func__.StartChildProcess = private unnamed_addr constant [18 x i8] c"StartChildProcess\00", align 1
@.str.141 = private unnamed_addr constant [51 x i8] c"no postmaster child slot available for aux process\00", align 1
@.str.142 = private unnamed_addr constant [32 x i8] c"could not fork \22%s\22 process: %m\00", align 1

; Function Attrs: nounwind uwtable
define internal ptr @StartChildProcess(i32 noundef %0) #2 {
  %2 = alloca ptr, align 8
  %3 = alloca i32, align 4
  %4 = alloca ptr, align 8
  %5 = alloca i32, align 4
  %6 = alloca i32, align 4
  store i32 %0, ptr %3, align 4
  call void @llvm.lifetime.start.p0(i64 8, ptr %4) #15
  call void @llvm.lifetime.start.p0(i64 4, ptr %5) #15
  %7 = load i32, ptr %3, align 4
  %8 = call ptr @AssignPostmasterChildSlot(i32 noundef %7)
  store ptr %8, ptr %4, align 8
  %9 = load ptr, ptr %4, align 8
  %10 = icmp ne ptr %9, null
  br i1 %10, label %38, label %11

11:                                               ; preds = %1
  %12 = load i32, ptr %3, align 4
  %13 = icmp eq i32 %12, 4
  br i1 %13, label %14, label %26

14:                                               ; preds = %11
  br label %15

15:                                               ; preds = %14
  br i1 false, label %16, label %18

16:                                               ; preds = %15
  %17 = call zeroext i1 @errstart_cold(i32 noundef 15, ptr noundef null) #16
  br i1 %17, label %20, label %23

18:                                               ; preds = %15
  %19 = call zeroext i1 @errstart(i32 noundef 15, ptr noundef null)
  br i1 %19, label %20, label %23

20:                                               ; preds = %18, %16
  %21 = call i32 @errcode(i32 noundef 16581)
  %22 = call i32 (ptr, ...) @errmsg(ptr noundef @.str.140)
  call void @errfinish(ptr noundef @.str.4, i32 noundef 3896, ptr noundef @__func__.StartChildProcess)
  br label %23

23:                                               ; preds = %20, %18, %16
  br label %24

24:                                               ; preds = %23
  br label %25

25:                                               ; preds = %24
  br label %37

26:                                               ; preds = %11
  br label %27

27:                                               ; preds = %26
  br i1 false, label %28, label %30

28:                                               ; preds = %27
  %29 = call zeroext i1 @errstart_cold(i32 noundef 15, ptr noundef null) #16
  br i1 %29, label %32, label %34

30:                                               ; preds = %27
  %31 = call zeroext i1 @errstart(i32 noundef 15, ptr noundef null)
  br i1 %31, label %32, label %34

32:                                               ; preds = %30, %28
  %33 = call i32 (ptr, ...) @errmsg_internal(ptr noundef @.str.141)
  call void @errfinish(ptr noundef @.str.4, i32 noundef 3900, ptr noundef @__func__.StartChildProcess)
  br label %34

34:                                               ; preds = %32, %30, %28
  br label %35

35:                                               ; preds = %34
  br label %36

36:                                               ; preds = %35
  br label %37

37:                                               ; preds = %36, %25
  store ptr null, ptr %2, align 8
  store i32 1, ptr %6, align 4
  br label %70

38:                                               ; preds = %1
  %39 = load i32, ptr %3, align 4
  %40 = load ptr, ptr %4, align 8
  %41 = getelementptr inbounds nuw %struct.PMChild, ptr %40, i32 0, i32 1
  %42 = load i32, ptr %41, align 4
  %43 = call i32 @postmaster_child_launch(i32 noundef %39, i32 noundef %42, ptr noundef null, i64 noundef 0, ptr noundef null)
  store i32 %43, ptr %5, align 4
  %44 = load i32, ptr %5, align 4
  %45 = icmp slt i32 %44, 0
  br i1 %45, label %46, label %65

46:                                               ; preds = %38
  %47 = load ptr, ptr %4, align 8
  %48 = call zeroext i1 @ReleasePostmasterChildSlot(ptr noundef %47)
  br label %49

49:                                               ; preds = %46
  br i1 false, label %50, label %52

50:                                               ; preds = %49
  %51 = call zeroext i1 @errstart_cold(i32 noundef 15, ptr noundef null) #16
  br i1 %51, label %54, label %58

52:                                               ; preds = %49
  %53 = call zeroext i1 @errstart(i32 noundef 15, ptr noundef null)
  br i1 %53, label %54, label %58

54:                                               ; preds = %52, %50
  %55 = load i32, ptr %3, align 4
  %56 = call ptr @PostmasterChildName(i32 noundef %55)
  %57 = call i32 (ptr, ...) @errmsg(ptr noundef @.str.142, ptr noundef %56)
  call void @errfinish(ptr noundef @.str.4, i32 noundef 3911, ptr noundef @__func__.StartChildProcess)
  br label %58

58:                                               ; preds = %54, %52, %50
  br label %59

59:                                               ; preds = %58
  br label %60

60:                                               ; preds = %59
  %61 = load i32, ptr %3, align 4
  %62 = icmp eq i32 %61, 12
  br i1 %62, label %63, label %64

63:                                               ; preds = %60
  call void @ExitPostmaster(i32 noundef 1) #18
  unreachable

64:                                               ; preds = %60
  store ptr null, ptr %2, align 8
  store i32 1, ptr %6, align 4
  br label %70

65:                                               ; preds = %38
  %66 = load i32, ptr %5, align 4
  %67 = load ptr, ptr %4, align 8
  %68 = getelementptr inbounds nuw %struct.PMChild, ptr %67, i32 0, i32 0
  store i32 %66, ptr %68, align 8
  %69 = load ptr, ptr %4, align 8
  store ptr %69, ptr %2, align 8
  store i32 1, ptr %6, align 4
  br label %70

70:                                               ; preds = %65, %64, %37
  call void @llvm.lifetime.end.p0(i64 4, ptr %5) #15
  call void @llvm.lifetime.end.p0(i64 8, ptr %4) #15
  %71 = load ptr, ptr %2, align 8
  ret ptr %71
}