; Function Attrs: nounwind uwtable
define internal fastcc ptr @StartChildProcess(i32 noundef range(i32 3, 16) %0) unnamed_addr #2 {
  %2 = tail call ptr @AssignPostmasterChildSlot(i32 noundef %0) #18
  %.not = icmp eq ptr %2, null
  br i1 %.not, label %3, label %13

3:                                                ; preds = %1
  %4 = icmp eq i32 %0, 4
  %5 = tail call zeroext i1 @errstart(i32 noundef 15, ptr noundef null) #18
  br i1 %4, label %6, label %10

6:                                                ; preds = %3
  br i1 %5, label %7, label %28

7:                                                ; preds = %6
  %8 = tail call i32 @errcode(i32 noundef 16581) #18
  %9 = tail call i32 (ptr, ...) @errmsg(ptr noundef nonnull @.str.140) #18
  tail call void @errfinish(ptr noundef nonnull @.str.4, i32 noundef 3896, ptr noundef nonnull @__func__.StartChildProcess) #18
  br label %28

10:                                               ; preds = %3
  br i1 %5, label %11, label %28

11:                                               ; preds = %10
  %12 = tail call i32 (ptr, ...) @errmsg_internal(ptr noundef nonnull @.str.141) #18
  tail call void @errfinish(ptr noundef nonnull @.str.4, i32 noundef 3900, ptr noundef nonnull @__func__.StartChildProcess) #18
  br label %28

13:                                               ; preds = %1
  %14 = getelementptr inbounds nuw i8, ptr %2, i64 4
  %15 = load i32, ptr %14, align 4
  %16 = tail call i32 @postmaster_child_launch(i32 noundef %0, i32 noundef %15, ptr noundef null, i64 noundef 0, ptr noundef null) #18
  %17 = icmp slt i32 %16, 0
  br i1 %17, label %18, label %27

18:                                               ; preds = %13
  %19 = tail call zeroext i1 @ReleasePostmasterChildSlot(ptr noundef nonnull %2) #18
  %20 = tail call zeroext i1 @errstart(i32 noundef 15, ptr noundef null) #18
  br i1 %20, label %21, label %24

21:                                               ; preds = %18
  %22 = tail call ptr @PostmasterChildName(i32 noundef %0) #18
  %23 = tail call i32 (ptr, ...) @errmsg(ptr noundef nonnull @.str.142, ptr noundef %22) #18
  tail call void @errfinish(ptr noundef nonnull @.str.4, i32 noundef 3911, ptr noundef nonnull @__func__.StartChildProcess) #18
  br label %24

24:                                               ; preds = %21, %18
  %25 = icmp eq i32 %0, 12
  br i1 %25, label %26, label %28

26:                                               ; preds = %24
  tail call fastcc void @ExitPostmaster(i32 noundef 1) #20
  unreachable

27:                                               ; preds = %13
  store i32 %16, ptr %2, align 8
  br label %28

28:                                               ; preds = %24, %7, %6, %11, %10, %27
  %.0 = phi ptr [ %2, %27 ], [ null, %10 ], [ null, %11 ], [ null, %6 ], [ null, %7 ], [ null, %24 ]
  ret ptr %.0
}